target datalayout = "e-m:e-p270:32:32-p271:32:32-p272:64:64-i64:64-i128:128-f80:128-n8:16:32:64-S128"
target triple = "x86_64-pc-linux-gnu"

; Function Attrs: inlinehint nounwind uwtable
define internal void @selectionsort(ptr noundef %0, i32 noundef %1, ptr noundef %2) #5 {
  %4 = alloca ptr, align 8
  %5 = alloca i32, align 4
  %6 = alloca ptr, align 8
  %7 = alloca i32, align 4
  %8 = alloca i32, align 4
  %9 = alloca i32, align 4
  %10 = alloca i32, align 4
  store ptr %0, ptr %4, align 8, !tbaa !3
  store i32 %1, ptr %5, align 4, !tbaa !8
  store ptr %2, ptr %6, align 8, !tbaa !10
  call void @llvm.lifetime.start.p0(i64 4, ptr %7) #8
  call void @llvm.lifetime.start.p0(i64 4, ptr %8) #8
  call void @llvm.lifetime.start.p0(i64 4, ptr %9) #8
  call void @llvm.lifetime.start.p0(i64 4, ptr %10) #8
  store i32 0, ptr %7, align 4, !tbaa !8
  br label %11

11:                                               ; preds = %62, %3
  %12 = load i32, ptr %7, align 4, !tbaa !8
  %13 = load i32, ptr %5, align 4, !tbaa !8
  %14 = sub nsw i32 %13, 1
  %15 = icmp slt i32 %12, %14
  br i1 %15, label %16, label %65

16:                                               ; preds = %11
  %17 = load i32, ptr %7, align 4, !tbaa !8
  store i32 %17, ptr %9, align 4, !tbaa !8
  %18 = load i32, ptr %7, align 4, !tbaa !8
  %19 = add nsw i32 %18, 1
  store i32 %19, ptr %8, align 4, !tbaa !8
  br label %20

20:                                               ; preds = %39, %16
  %21 = load i32, ptr %8, align 4, !tbaa !8
  %22 = load i32, ptr %5, align 4, !tbaa !8
  %23 = icmp slt i32 %21, %22
  br i1 %23, label %24, label %42

24:                                               ; preds = %20
  %25 = load ptr, ptr %6, align 8, !tbaa !10
  %26 = load ptr, ptr %4, align 8, !tbaa !3
  %27 = load i32, ptr %8, align 4, !tbaa !8
  %28 = sext i32 %27 to i64
  %29 = getelementptr inbounds i32, ptr %26, i64 %28
  %30 = load ptr, ptr %4, align 8, !tbaa !3
  %31 = load i32, ptr %9, align 4, !tbaa !8
  %32 = sext i32 %31 to i64
  %33 = getelementptr inbounds i32, ptr %30, i64 %32
  %34 = call i32 %25(ptr noundef %29, ptr noundef %33)
  %35 = icmp ne i32 %34, 0
  br i1 %35, label %36, label %38

36:                                               ; preds = %24
  %37 = load i32, ptr %8, align 4, !tbaa !8
  store i32 %37, ptr %9, align 4, !tbaa !8
  br label %38

38:                                               ; preds = %36, %24
  br label %39

39:                                               ; preds = %38
  %40 = load i32, ptr %8, align 4, !tbaa !8
  %41 = add nsw i32 %40, 1
  store i32 %41, ptr %8, align 4, !tbaa !8
  br label %20, !llvm.loop !31

42:                                               ; preds = %20
  %43 = load ptr, ptr %4, align 8, !tbaa !3
  %44 = load i32, ptr %7, align 4, !tbaa !8
  %45 = sext i32 %44 to i64
  %46 = getelementptr inbounds i32, ptr %43, i64 %45
  %47 = load i32, ptr %46, align 4, !tbaa !8
  store i32 %47, ptr %10, align 4, !tbaa !8
  %48 = load ptr, ptr %4, align 8, !tbaa !3
  %49 = load i32, ptr %9, align 4, !tbaa !8
  %50 = sext i32 %49 to i64
  %51 = getelementptr inbounds i32, ptr %48, i64 %50
  %52 = load i32, ptr %51, align 4, !tbaa !8
  %53 = load ptr, ptr %4, align 8, !tbaa !3
  %54 = load i32, ptr %7, align 4, !tbaa !8
  %55 = sext i32 %54 to i64
  %56 = getelementptr inbounds i32, ptr %53, i64 %55
  store i32 %52, ptr %56, align 4, !tbaa !8
  %57 = load i32, ptr %10, align 4, !tbaa !8
  %58 = load ptr, ptr %4, align 8, !tbaa !3
  %59 = load i32, ptr %9, align 4, !tbaa !8
  %60 = sext i32 %59 to i64
  %61 = getelementptr inbounds i32, ptr %58, i64 %60
  store i32 %57, ptr %61, align 4, !tbaa !8
  br label %62

62:                                               ; preds = %42
  %63 = load i32, ptr %7, align 4, !tbaa !8
  %64 = add nsw i32 %63, 1
  store i32 %64, ptr %7, align 4, !tbaa !8
  br label %11, !llvm.loop !32

65:                                               ; preds = %11
  call void @llvm.lifetime.end.p0(i64 4, ptr %10) #8
  call void @llvm.lifetime.end.p0(i64 4, ptr %9) #8
  call void @llvm.lifetime.end.p0(i64 4, ptr %8) #8
  call void @llvm.lifetime.end.p0(i64 4, ptr %7) #8
  ret void
}

; Function Attrs: nounwind uwtable
define internal void @sort_rec(ptr noundef %0, i32 noundef %1, ptr noundef %2) #0 {
  %4 = alloca ptr, align 8
  %5 = alloca i32, align 4
  %6 = alloca ptr, align 8
  %7 = alloca i32, align 4
  %8 = alloca i32, align 4
  %9 = alloca i32, align 4
  %10 = alloca i32, align 4
  store ptr %0, ptr %4, align 8, !tbaa !3
  store i32 %1, ptr %5, align 4, !tbaa !8
  store ptr %2, ptr %6, align 8, !tbaa !10
  %11 = load i32, ptr %5, align 4, !tbaa !8
  %12 = icmp sle i32 %11, 15
  br i1 %12, label %13, label %17

13:                                               ; preds = %3
  %14 = load ptr, ptr %4, align 8, !tbaa !3
  %15 = load i32, ptr %5, align 4, !tbaa !8
  %16 = load ptr, ptr %6, align 8, !tbaa !10
  call void @selectionsort(ptr noundef %14, i32 noundef %15, ptr noundef %16)
  br label %86

17:                                               ; preds = %3
  call void @llvm.lifetime.start.p0(i64 4, ptr %7) #8
  %18 = load ptr, ptr %4, align 8, !tbaa !3
  %19 = load i32, ptr %5, align 4, !tbaa !8
  %20 = sdiv i32 %19, 2
  %21 = sext i32 %20 to i64
  %22 = getelementptr inbounds i32, ptr %18, i64 %21
  %23 = load i32, ptr %22, align 4, !tbaa !8
  store i32 %23, ptr %7, align 4, !tbaa !8
  call void @llvm.lifetime.start.p0(i64 4, ptr %8) #8
  call void @llvm.lifetime.start.p0(i64 4, ptr %9) #8
  store i32 -1, ptr %9, align 4, !tbaa !8
  call void @llvm.lifetime.start.p0(i64 4, ptr %10) #8
  %24 = load i32, ptr %5, align 4, !tbaa !8
  store i32 %24, ptr %10, align 4, !tbaa !8
  br label %25

25:                                               ; preds = %54, %17
  br label %26

26:                                               ; preds = %29, %25
  %27 = load i32, ptr %9, align 4, !tbaa !8
  %28 = add nsw i32 %27, 1
  store i32 %28, ptr %9, align 4, !tbaa !8
  br label %29

29:                                               ; preds = %26
  %30 = load ptr, ptr %6, align 8, !tbaa !10
  %31 = load ptr, ptr %4, align 8, !tbaa !3
  %32 = load i32, ptr %9, align 4, !tbaa !8
  %33 = sext i32 %32 to i64
  %34 = getelementptr inbounds i32, ptr %31, i64 %33
  %35 = call i32 %30(ptr noundef %34, ptr noundef %7)
  %36 = icmp ne i32 %35, 0
  br i1 %36, label %26, label %37, !llvm.loop !11

37:                                               ; preds = %29
  br label %38

38:                                               ; preds = %41, %37
  %39 = load i32, ptr %10, align 4, !tbaa !8
  %40 = add nsw i32 %39, -1
  store i32 %40, ptr %10, align 4, !tbaa !8
  br label %41

41:                                               ; preds = %38
  %42 = load ptr, ptr %6, align 8, !tbaa !10
  %43 = load ptr, ptr %4, align 8, !tbaa !3
  %44 = load i32, ptr %10, align 4, !tbaa !8
  %45 = sext i32 %44 to i64
  %46 = getelementptr inbounds i32, ptr %43, i64 %45
  %47 = call i32 %42(ptr noundef %7, ptr noundef %46)
  %48 = icmp ne i32 %47, 0
  br i1 %48, label %38, label %49, !llvm.loop !13

49:                                               ; preds = %41
  %50 = load i32, ptr %9, align 4, !tbaa !8
  %51 = load i32, ptr %10, align 4, !tbaa !8
  %52 = icmp sge i32 %50, %51
  br i1 %52, label %53, label %54

53:                                               ; preds = %49
  br label %74

54:                                               ; preds = %49
  %55 = load ptr, ptr %4, align 8, !tbaa !3
  %56 = load i32, ptr %9, align 4, !tbaa !8
  %57 = sext i32 %56 to i64
  %58 = getelementptr inbounds i32, ptr %55, i64 %57
  %59 = load i32, ptr %58, align 4, !tbaa !8
  store i32 %59, ptr %8, align 4, !tbaa !8
  %60 = load ptr, ptr %4, align 8, !tbaa !3
  %61 = load i32, ptr %10, align 4, !tbaa !8
  %62 = sext i32 %61 to i64
  %63 = getelementptr inbounds i32, ptr %60, i64 %62
  %64 = load i32, ptr %63, align 4, !tbaa !8
  %65 = load ptr, ptr %4, align 8, !tbaa !3
  %66 = load i32, ptr %9, align 4, !tbaa !8
  %67 = sext i32 %66 to i64
  %68 = getelementptr inbounds i32, ptr %65, i64 %67
  store i32 %64, ptr %68, align 4, !tbaa !8
  %69 = load i32, ptr %8, align 4, !tbaa !8
  %70 = load ptr, ptr %4, align 8, !tbaa !3
  %71 = load i32, ptr %10, align 4, !tbaa !8
  %72 = sext i32 %71 to i64
  %73 = getelementptr inbounds i32, ptr %70, i64 %72
  store i32 %69, ptr %73, align 4, !tbaa !8
  br label %25

74:                                               ; preds = %53
  %75 = load ptr, ptr %4, align 8, !tbaa !3
  %76 = load i32, ptr %9, align 4, !tbaa !8
  %77 = load ptr, ptr %6, align 8, !tbaa !10
  call void @sort_rec(ptr noundef %75, i32 noundef %76, ptr noundef %77)
  %78 = load ptr, ptr %4, align 8, !tbaa !3
  %79 = load i32, ptr %9, align 4, !tbaa !8
  %80 = sext i32 %79 to i64
  %81 = getelementptr inbounds i32, ptr %78, i64 %80
  %82 = load i32, ptr %5, align 4, !tbaa !8
  %83 = load i32, ptr %9, align 4, !tbaa !8
  %84 = sub nsw i32 %82, %83
  %85 = load ptr, ptr %6, align 8, !tbaa !10
  call void @sort_rec(ptr noundef %81, i32 noundef %84, ptr noundef %85)
  call void @llvm.lifetime.end.p0(i64 4, ptr %10) #8
  call void @llvm.lifetime.end.p0(i64 4, ptr %9) #8
  call void @llvm.lifetime.end.p0(i64 4, ptr %8) #8
  call void @llvm.lifetime.end.p0(i64 4, ptr %7) #8
  br label %86

86:                                               ; preds = %74, %13
  ret void
}