; Function Attrs: nounwind uwtable
define internal fastcc void @sort_rec(ptr noundef %0, i32 noundef %1, ptr noundef %2) unnamed_addr #0 {
  %4 = alloca i32, align 4
  %5 = icmp slt i32 %1, 16
  br i1 %5, label %6, label %20

6:                                                ; preds = %3
  %7 = icmp sgt i32 %1, 1
  br i1 %7, label %.lr.ph28.preheader.i, label %selectionsort.exit

.lr.ph28.preheader.i:                             ; preds = %6
  %8 = add nsw i32 %1, -1
  %wide.trip.count36.i = zext nneg i32 %8 to i64
  %wide.trip.count.i = zext nneg i32 %1 to i64
  br label %.lr.ph.preheader.i

.lr.ph.preheader.i:                               ; preds = %._crit_edge.i, %.lr.ph28.preheader.i
  %indvars.iv33.i = phi i64 [ 0, %.lr.ph28.preheader.i ], [ %indvars.iv.next34.i, %._crit_edge.i ]
  %indvars.iv.i = phi i64 [ 1, %.lr.ph28.preheader.i ], [ %indvars.iv.next.i, %._crit_edge.i ]
  %9 = trunc nuw nsw i64 %indvars.iv33.i to i32
  br label %.lr.ph.i

.lr.ph.i:                                         ; preds = %.lr.ph.i, %.lr.ph.preheader.i
  %indvars.iv30.i = phi i64 [ %indvars.iv.i, %.lr.ph.preheader.i ], [ %indvars.iv.next31.i, %.lr.ph.i ]
  %.02225.i = phi i32 [ %9, %.lr.ph.preheader.i ], [ %spec.select.i, %.lr.ph.i ]
  %10 = getelementptr inbounds nuw i32, ptr %0, i64 %indvars.iv30.i
  %11 = sext i32 %.02225.i to i64
  %12 = getelementptr inbounds i32, ptr %0, i64 %11
  %13 = tail call i32 %2(ptr noundef nonnull %10, ptr noundef %12) #16
  %.not.i = icmp eq i32 %13, 0
  %14 = trunc nuw nsw i64 %indvars.iv30.i to i32
  %spec.select.i = select i1 %.not.i, i32 %.02225.i, i32 %14
  %indvars.iv.next31.i = add nuw nsw i64 %indvars.iv30.i, 1
  %exitcond.not.i = icmp eq i64 %indvars.iv.next31.i, %wide.trip.count.i
  br i1 %exitcond.not.i, label %._crit_edge.i, label %.lr.ph.i, !llvm.loop !3

._crit_edge.i:                                    ; preds = %.lr.ph.i
  %indvars.iv.next34.i = add nuw nsw i64 %indvars.iv33.i, 1
  %15 = getelementptr inbounds nuw i32, ptr %0, i64 %indvars.iv33.i
  %16 = load i32, ptr %15, align 4, !tbaa !5
  %17 = sext i32 %spec.select.i to i64
  %18 = getelementptr inbounds i32, ptr %0, i64 %17
  %19 = load i32, ptr %18, align 4, !tbaa !5
  store i32 %19, ptr %15, align 4, !tbaa !5
  store i32 %16, ptr %18, align 4, !tbaa !5
  %indvars.iv.next.i = add nuw nsw i64 %indvars.iv.i, 1
  %exitcond37.not.i = icmp eq i64 %indvars.iv.next34.i, %wide.trip.count36.i
  br i1 %exitcond37.not.i, label %selectionsort.exit, label %.lr.ph.preheader.i, !llvm.loop !9

20:                                               ; preds = %3
  call void @llvm.lifetime.start.p0(i64 4, ptr nonnull %4) #16
  %21 = lshr i32 %1, 1
  %22 = zext nneg i32 %21 to i64
  %23 = getelementptr inbounds nuw i32, ptr %0, i64 %22
  %24 = load i32, ptr %23, align 4, !tbaa !5
  store i32 %24, ptr %4, align 4, !tbaa !5
  br label %25

25:                                               ; preds = %35, %20
  %.033 = phi i64 [ -1, %20 ], [ %indvars.iv.next, %35 ]
  %.0 = phi i32 [ %1, %20 ], [ %36, %35 ]
  %sext = shl i64 %.033, 32
  %26 = ashr exact i64 %sext, 32
  br label %27

27:                                               ; preds = %27, %25
  %indvars.iv = phi i64 [ %indvars.iv.next, %27 ], [ %26, %25 ]
  %indvars.iv.next = add nsw i64 %indvars.iv, 1
  %28 = getelementptr inbounds i32, ptr %0, i64 %indvars.iv.next
  %29 = call i32 %2(ptr noundef %28, ptr noundef nonnull %4) #16
  %.not = icmp eq i32 %29, 0
  br i1 %.not, label %.preheader, label %27, !llvm.loop !10

.preheader:                                       ; preds = %27
  %30 = sext i32 %.0 to i64
  br label %31

31:                                               ; preds = %.preheader, %31
  %indvars.iv49 = phi i64 [ %30, %.preheader ], [ %indvars.iv.next50, %31 ]
  %indvars.iv.next50 = add nsw i64 %indvars.iv49, -1
  %32 = getelementptr inbounds i32, ptr %0, i64 %indvars.iv.next50
  %33 = call i32 %2(ptr noundef nonnull %4, ptr noundef %32) #16
  %.not40 = icmp eq i32 %33, 0
  br i1 %.not40, label %34, label %31, !llvm.loop !11

34:                                               ; preds = %31
  %.not41 = icmp slt i64 %indvars.iv.next, %indvars.iv.next50
  br i1 %.not41, label %35, label %39

35:                                               ; preds = %34
  %36 = trunc nsw i64 %indvars.iv.next50 to i32
  %37 = load i32, ptr %28, align 4, !tbaa !5
  %38 = load i32, ptr %32, align 4, !tbaa !5
  store i32 %38, ptr %28, align 4, !tbaa !5
  store i32 %37, ptr %32, align 4, !tbaa !5
  br label %25

39:                                               ; preds = %34
  %40 = trunc nsw i64 %indvars.iv.next to i32
  call fastcc void @sort_rec(ptr noundef %0, i32 noundef %40, ptr noundef %2)
  %41 = sub nsw i32 %1, %40
  call fastcc void @sort_rec(ptr noundef %28, i32 noundef %41, ptr noundef %2)
  call void @llvm.lifetime.end.p0(i64 4, ptr nonnull %4) #16
  br label %selectionsort.exit

selectionsort.exit:                               ; preds = %._crit_edge.i, %6, %39
  ret void
}